; Function Attrs: mustprogress nounwind uwtable
define internal void @"_ZN4llvm12function_refIFvRNS_15SmallVectorImplISt4pairIjPNS_6MDNodeEEEEEE11callback_fnIZ46LLVMInstructionGetAllMetadataOtherThanDebugLocE3$_0EEvlS7_"(i64 noundef %0, ptr noundef nonnull align 8 dereferenceable(16) %1) #0 align 2 {
  %3 = inttoptr i64 %0 to ptr
  %4 = tail call noundef i64 @_ZNK4llvm15SmallVectorBaseIjE4sizeEv(ptr noundef nonnull align 8 dereferenceable(16) %1) #35
  %5 = getelementptr inbounds nuw i8, ptr %1, i64 8
  store i32 0, ptr %5, align 8
  %6 = load ptr, ptr %3, align 8
  %7 = load ptr, ptr %6, align 8
  %8 = getelementptr inbounds nuw i8, ptr %7, i64 48
  %9 = load ptr, ptr %8, align 8
  %10 = icmp ne ptr %9, null
  %11 = getelementptr inbounds nuw i8, ptr %7, i64 4
  %12 = load i32, ptr %11, align 4
  %13 = and i32 %12, 536870912
  %14 = icmp ne i32 %13, 0
  %15 = select i1 %10, i1 true, i1 %14
  br i1 %15, label %16, label %"_ZZ46LLVMInstructionGetAllMetadataOtherThanDebugLocENK3$_0clERN4llvm15SmallVectorImplISt4pairIjPNS0_6MDNodeEEEE.exit"

16:                                               ; preds = %2
  tail call void @_ZNK4llvm11Instruction18getAllMetadataImplERNS_15SmallVectorImplISt4pairIjPNS_6MDNodeEEEE(ptr noundef nonnull align 8 dereferenceable(72) %7, ptr noundef nonnull align 8 dereferenceable(16) %1) #35
  br label %"_ZZ46LLVMInstructionGetAllMetadataOtherThanDebugLocENK3$_0clERN4llvm15SmallVectorImplISt4pairIjPNS0_6MDNodeEEEE.exit"

"_ZZ46LLVMInstructionGetAllMetadataOtherThanDebugLocENK3$_0clERN4llvm15SmallVectorImplISt4pairIjPNS0_6MDNodeEEEE.exit": ; preds = %2, %16
  ret void
}